; Function Attrs: nounwind uwtable
define dso_local void @mdimmedsync(ptr noundef captures(none) %0, i32 noundef %1) local_unnamed_addr #0 {
  %3 = tail call i32 @mdnblocks(ptr noundef %0, i32 noundef %1)
  %4 = getelementptr inbounds nuw i8, ptr %0, i64 40
  %5 = sext i32 %1 to i64
  %6 = getelementptr inbounds [4 x i32], ptr %4, i64 0, i64 %5
  %7 = load i32, ptr %6, align 4
  br label %8

8:                                                ; preds = %8, %2
  %.0 = phi i32 [ %7, %2 ], [ %10, %8 ]
  %9 = tail call fastcc ptr @_mdfd_openseg(ptr noundef %0, i32 noundef %1, i32 noundef %.0, i32 noundef 0)
  %.not = icmp eq ptr %9, null
  %10 = add i32 %.0, 1
  br i1 %.not, label %.preheader, label %8, !llvm.loop !15

.preheader:                                       ; preds = %8
  %11 = icmp sgt i32 %.0, 0
  br i1 %11, label %.lr.ph, label %._crit_edge

.lr.ph:                                           ; preds = %.preheader
  %12 = getelementptr inbounds nuw i8, ptr %0, i64 56
  %13 = getelementptr inbounds [4 x ptr], ptr %12, i64 0, i64 %5
  %14 = zext nneg i32 %.0 to i64
  %15 = sext i32 %7 to i64
  br label %16

16:                                               ; preds = %.lr.ph, %54
  %indvars.iv = phi i64 [ %14, %.lr.ph ], [ %indvars.iv.next, %54 ]
  %17 = load ptr, ptr %13, align 8
  %indvars.iv.next = add nsw i64 %indvars.iv, -1
  %18 = getelementptr inbounds nuw %struct._MdfdVec, ptr %17, i64 %indvars.iv.next
  %19 = load i32, ptr %18, align 4
  %20 = tail call i32 @FileSync(i32 noundef %19, i32 noundef 167772175) #15
  %21 = icmp slt i32 %20, 0
  br i1 %21, label %22, label %30

22:                                               ; preds = %16
  %23 = tail call i32 @data_sync_elevel(i32 noundef 21) #15
  %24 = tail call zeroext i1 @errstart(i32 noundef %23, ptr noundef null) #15
  br i1 %24, label %25, label %30

25:                                               ; preds = %22
  %26 = tail call i32 @errcode_for_file_access() #15
  %27 = load i32, ptr %18, align 4
  %28 = tail call ptr @FilePathName(i32 noundef %27) #15
  %29 = tail call i32 (ptr, ...) @errmsg(ptr noundef nonnull @.str.17, ptr noundef %28) #15
  tail call void @errfinish(ptr noundef nonnull @.str.2, i32 noundef 1345, ptr noundef nonnull @__func__.mdimmedsync) #15
  br label %30

30:                                               ; preds = %22, %25, %16
  %31 = icmp sgt i64 %indvars.iv, %15
  br i1 %31, label %32, label %54

32:                                               ; preds = %30
  %33 = load i32, ptr %18, align 4
  tail call void @FileClose(i32 noundef %33) #15
  %34 = icmp eq i64 %indvars.iv.next, 0
  %35 = load i32, ptr %6, align 4
  br i1 %34, label %36, label %40

36:                                               ; preds = %32
  %37 = icmp sgt i32 %35, 0
  br i1 %37, label %38, label %_fdvec_resize.exit

38:                                               ; preds = %36
  %39 = load ptr, ptr %13, align 8
  tail call void @pfree(ptr noundef %39) #15
  br label %_fdvec_resize.exit.sink.split

40:                                               ; preds = %32
  %41 = icmp eq i32 %35, 0
  br i1 %41, label %42, label %46

42:                                               ; preds = %40
  %43 = load ptr, ptr @MdCxt, align 8
  %44 = shl nuw nsw i64 %indvars.iv.next, 3
  %45 = tail call ptr @MemoryContextAlloc(ptr noundef %43, i64 noundef %44) #15
  br label %_fdvec_resize.exit.sink.split

46:                                               ; preds = %40
  %47 = sext i32 %35 to i64
  %48 = icmp sgt i64 %indvars.iv.next, %47
  br i1 %48, label %49, label %_fdvec_resize.exit

49:                                               ; preds = %46
  %50 = load ptr, ptr %13, align 8
  %51 = shl nuw nsw i64 %indvars.iv.next, 3
  %52 = tail call ptr @repalloc(ptr noundef %50, i64 noundef %51) #15
  br label %_fdvec_resize.exit.sink.split

_fdvec_resize.exit.sink.split:                    ; preds = %49, %42, %38
  %.sink = phi ptr [ null, %38 ], [ %45, %42 ], [ %52, %49 ]
  store ptr %.sink, ptr %13, align 8
  br label %_fdvec_resize.exit

_fdvec_resize.exit:                               ; preds = %_fdvec_resize.exit.sink.split, %36, %46
  %53 = trunc nuw nsw i64 %indvars.iv.next to i32
  store i32 %53, ptr %6, align 4
  br label %54

54:                                               ; preds = %_fdvec_resize.exit, %30
  %55 = icmp samesign ugt i64 %indvars.iv, 1
  br i1 %55, label %16, label %._crit_edge, !llvm.loop !16

._crit_edge:                                      ; preds = %54, %.preheader
  ret void
}